target datalayout = "e-m:e-p270:32:32-p271:32:32-p272:64:64-i64:64-i128:128-f80:128-n8:16:32:64-S128"
target triple = "x86_64-unknown-linux-gnu"

%"class.QuantLib::GaussLobattoIntegral" = type <{ %"class.QuantLib::Integrator", double, i8, [7 x i8] }>
%"class.QuantLib::Integrator" = type { ptr, double, double, i64, i64 }

; Function Attrs: mustprogress uwtable
define void @_ZN8QuantLib20GaussLobattoIntegralC2Emddb(ptr noundef nonnull align 8 dereferenceable(49) %this, i64 noundef %maxIterations, double noundef %absAccuracy, double noundef %relAccuracy, i1 noundef zeroext %useConvergenceEstimate) unnamed_addr #3 align 2 {
entry:
  %this.addr = alloca ptr, align 8
  %maxIterations.addr = alloca i64, align 8
  %absAccuracy.addr = alloca double, align 8
  %relAccuracy.addr = alloca double, align 8
  %useConvergenceEstimate.addr = alloca i8, align 1
  store ptr %this, ptr %this.addr, align 8, !tbaa !9
  store i64 %maxIterations, ptr %maxIterations.addr, align 8, !tbaa !11
  store double %absAccuracy, ptr %absAccuracy.addr, align 8, !tbaa !7
  store double %relAccuracy, ptr %relAccuracy.addr, align 8, !tbaa !7
  %storedv = zext i1 %useConvergenceEstimate to i8
  store i8 %storedv, ptr %useConvergenceEstimate.addr, align 1, !tbaa !13
  %this1 = load ptr, ptr %this.addr, align 8
  %0 = load double, ptr %absAccuracy.addr, align 8, !tbaa !7
  %1 = load i64, ptr %maxIterations.addr, align 8, !tbaa !11
  call void @_ZN8QuantLib10IntegratorC2Edm(ptr noundef nonnull align 8 dereferenceable(40) %this1, double noundef %0, i64 noundef %1)
  store ptr getelementptr inbounds inrange(-16, 32) ({ [6 x ptr] }, ptr @_ZTVN8QuantLib20GaussLobattoIntegralE, i32 0, i32 0, i32 2), ptr %this1, align 8, !tbaa !15
  %relAccuracy_ = getelementptr inbounds nuw %"class.QuantLib::GaussLobattoIntegral", ptr %this1, i32 0, i32 1
  %2 = load double, ptr %relAccuracy.addr, align 8, !tbaa !7
  store double %2, ptr %relAccuracy_, align 8, !tbaa !17
  %useConvergenceEstimate_ = getelementptr inbounds nuw %"class.QuantLib::GaussLobattoIntegral", ptr %this1, i32 0, i32 2
  %3 = load i8, ptr %useConvergenceEstimate.addr, align 1, !tbaa !13, !range !20, !noundef !21
  %loadedv = trunc i8 %3 to i1
  %storedv2 = zext i1 %loadedv to i8
  store i8 %storedv2, ptr %useConvergenceEstimate_, align 8, !tbaa !22
  ret void
}