; Function Attrs: mustprogress uwtable
define void @_ZN8QuantLib20GaussLobattoIntegralC2Emddb(ptr noundef nonnull align 8 dereferenceable(49) %this, i64 noundef %maxIterations, double noundef %absAccuracy, double noundef %relAccuracy, i1 noundef zeroext %useConvergenceEstimate) unnamed_addr #0 align 2 {
entry:
  %storedv = zext i1 %useConvergenceEstimate to i8
  tail call void @_ZN8QuantLib10IntegratorC2Edm(ptr noundef nonnull align 8 dereferenceable(40) %this, double noundef %absAccuracy, i64 noundef %maxIterations)
  store ptr getelementptr inbounds inrange(-16, 32) (i8, ptr @_ZTVN8QuantLib20GaussLobattoIntegralE, i64 16), ptr %this, align 8, !tbaa !3
  %relAccuracy_ = getelementptr inbounds nuw i8, ptr %this, i64 40
  store double %relAccuracy, ptr %relAccuracy_, align 8, !tbaa !6
  %useConvergenceEstimate_ = getelementptr inbounds nuw i8, ptr %this, i64 48
  store i8 %storedv, ptr %useConvergenceEstimate_, align 8, !tbaa !13
  ret void
}